target datalayout = "e-m:e-p270:32:32-p271:32:32-p272:64:64-i64:64-i128:128-f80:128-n8:16:32:64-S128"
target triple = "x86_64-pc-linux-gnu"

; Function Attrs: nounwind sspstrong uwtable
define dso_local void @rb_gvar_val_marker(ptr noundef %0) #0 {
  %2 = alloca ptr, align 8
  %3 = alloca i64, align 8
  store ptr %0, ptr %2, align 8, !tbaa !49
  call void @llvm.lifetime.start.p0(i64 8, ptr %3) #30
  %4 = load ptr, ptr %2, align 8, !tbaa !49
  %5 = ptrtoint ptr %4 to i64
  store i64 %5, ptr %3, align 8, !tbaa !14
  %6 = load i64, ptr %3, align 8, !tbaa !14
  %7 = icmp ne i64 %6, 0
  br i1 %7, label %8, label %10

8:                                                ; preds = %1
  %9 = load i64, ptr %3, align 8, !tbaa !14
  call void @rb_gc_mark_movable(i64 noundef %9)
  br label %10

10:                                               ; preds = %8, %1
  call void @llvm.lifetime.end.p0(i64 8, ptr %3) #30
  ret void
}