; Function Attrs: nounwind sspstrong uwtable
define dso_local void @rb_gvar_val_marker(ptr noundef %0) #0 {
  %.not = icmp eq ptr %0, null
  br i1 %.not, label %4, label %2

2:                                                ; preds = %1
  %3 = ptrtoint ptr %0 to i64
  tail call void @rb_gc_mark_movable(i64 noundef %3) #27
  br label %4

4:                                                ; preds = %2, %1
  ret void
}